target datalayout = "e-m:e-p270:32:32-p271:32:32-p272:64:64-i64:64-i128:128-f80:128-n8:16:32:64-S128"
target triple = "x86_64-pc-linux-gnu"

%struct.pmix_tma = type { ptr, ptr, ptr, ptr, ptr, ptr, ptr, ptr }
%struct.pmix_coord = type { i8, ptr, i64 }

; Function Attrs: inlinehint nounwind uwtable
define internal void @pmix_tma_free(ptr noundef %0, ptr noundef %1) #1 {
  %3 = alloca ptr, align 8
  %4 = alloca ptr, align 8
  store ptr %0, ptr %3, align 8, !tbaa !8
  store ptr %1, ptr %4, align 8, !tbaa !51
  %5 = load ptr, ptr %3, align 8, !tbaa !8
  %6 = icmp ne ptr null, %5
  br i1 %6, label %7, label %13

7:                                                ; preds = %2
  %8 = load ptr, ptr %3, align 8, !tbaa !8
  %9 = getelementptr inbounds nuw %struct.pmix_tma, ptr %8, i32 0, i32 5
  %10 = load ptr, ptr %9, align 8, !tbaa !229
  %11 = load ptr, ptr %3, align 8, !tbaa !8
  %12 = load ptr, ptr %4, align 8, !tbaa !51
  call void %10(ptr noundef %11, ptr noundef %12)
  br label %15

13:                                               ; preds = %2
  %14 = load ptr, ptr %4, align 8, !tbaa !51
  call void @free(ptr noundef %14) #15
  br label %15

15:                                               ; preds = %13, %7
  ret void
}

; Function Attrs: inlinehint nounwind uwtable
define internal void @pmix_bfrops_base_tma_coord_destruct(ptr noundef %0, ptr noundef %1) #1 {
  %3 = alloca ptr, align 8
  %4 = alloca ptr, align 8
  store ptr %0, ptr %3, align 8, !tbaa !60
  store ptr %1, ptr %4, align 8, !tbaa !8
  %5 = load ptr, ptr %3, align 8, !tbaa !60
  %6 = icmp ne ptr null, %5
  br i1 %6, label %7, label %24

7:                                                ; preds = %2
  %8 = load ptr, ptr %3, align 8, !tbaa !60
  %9 = getelementptr inbounds nuw %struct.pmix_coord, ptr %8, i32 0, i32 0
  store i8 0, ptr %9, align 8, !tbaa !62
  %10 = load ptr, ptr %3, align 8, !tbaa !60
  %11 = getelementptr inbounds nuw %struct.pmix_coord, ptr %10, i32 0, i32 1
  %12 = load ptr, ptr %11, align 8, !tbaa !65
  %13 = icmp ne ptr null, %12
  br i1 %13, label %14, label %23

14:                                               ; preds = %7
  %15 = load ptr, ptr %4, align 8, !tbaa !8
  %16 = load ptr, ptr %3, align 8, !tbaa !60
  %17 = getelementptr inbounds nuw %struct.pmix_coord, ptr %16, i32 0, i32 1
  %18 = load ptr, ptr %17, align 8, !tbaa !65
  call void @pmix_tma_free(ptr noundef %15, ptr noundef %18)
  %19 = load ptr, ptr %3, align 8, !tbaa !60
  %20 = getelementptr inbounds nuw %struct.pmix_coord, ptr %19, i32 0, i32 1
  store ptr null, ptr %20, align 8, !tbaa !65
  %21 = load ptr, ptr %3, align 8, !tbaa !60
  %22 = getelementptr inbounds nuw %struct.pmix_coord, ptr %21, i32 0, i32 2
  store i64 0, ptr %22, align 8, !tbaa !66
  br label %23

23:                                               ; preds = %14, %7
  br label %24

24:                                               ; preds = %23, %2
  ret void
}

; Function Attrs: inlinehint nounwind uwtable
define internal i32 @pmix_bfrops_base_tma_fill_coord(ptr noundef %0, ptr noundef %1, ptr noundef %2) #1 {
  %4 = alloca i32, align 4
  %5 = alloca ptr, align 8
  %6 = alloca ptr, align 8
  %7 = alloca ptr, align 8
  store ptr %0, ptr %5, align 8, !tbaa !60
  store ptr %1, ptr %6, align 8, !tbaa !60
  store ptr %2, ptr %7, align 8, !tbaa !8
  %8 = load ptr, ptr %6, align 8, !tbaa !60
  %9 = getelementptr inbounds nuw %struct.pmix_coord, ptr %8, i32 0, i32 0
  %10 = load i8, ptr %9, align 8, !tbaa !62
  %11 = load ptr, ptr %5, align 8, !tbaa !60
  %12 = getelementptr inbounds nuw %struct.pmix_coord, ptr %11, i32 0, i32 0
  store i8 %10, ptr %12, align 8, !tbaa !62
  %13 = load ptr, ptr %6, align 8, !tbaa !60
  %14 = getelementptr inbounds nuw %struct.pmix_coord, ptr %13, i32 0, i32 2
  %15 = load i64, ptr %14, align 8, !tbaa !66
  %16 = load ptr, ptr %5, align 8, !tbaa !60
  %17 = getelementptr inbounds nuw %struct.pmix_coord, ptr %16, i32 0, i32 2
  store i64 %15, ptr %17, align 8, !tbaa !66
  %18 = load ptr, ptr %5, align 8, !tbaa !60
  %19 = getelementptr inbounds nuw %struct.pmix_coord, ptr %18, i32 0, i32 2
  %20 = load i64, ptr %19, align 8, !tbaa !66
  %21 = icmp ult i64 0, %20
  br i1 %21, label %22, label %53

22:                                               ; preds = %3
  %23 = load ptr, ptr %7, align 8, !tbaa !8
  %24 = load ptr, ptr %5, align 8, !tbaa !60
  %25 = getelementptr inbounds nuw %struct.pmix_coord, ptr %24, i32 0, i32 2
  %26 = load i64, ptr %25, align 8, !tbaa !66
  %27 = mul i64 %26, 4
  %28 = call ptr @pmix_tma_malloc(ptr noundef %23, i64 noundef %27)
  %29 = load ptr, ptr %5, align 8, !tbaa !60
  %30 = getelementptr inbounds nuw %struct.pmix_coord, ptr %29, i32 0, i32 1
  store ptr %28, ptr %30, align 8, !tbaa !65
  %31 = load ptr, ptr %5, align 8, !tbaa !60
  %32 = getelementptr inbounds nuw %struct.pmix_coord, ptr %31, i32 0, i32 1
  %33 = load ptr, ptr %32, align 8, !tbaa !65
  %34 = icmp eq ptr null, %33
  %35 = xor i1 %34, true
  %36 = xor i1 %35, true
  %37 = zext i1 %36 to i32
  %38 = sext i32 %37 to i64
  %39 = call i64 @llvm.expect.i64(i64 %38, i64 0)
  %40 = icmp ne i64 %39, 0
  br i1 %40, label %41, label %42

41:                                               ; preds = %22
  store i32 -32, ptr %4, align 4
  br label %54

42:                                               ; preds = %22
  %43 = load ptr, ptr %5, align 8, !tbaa !60
  %44 = getelementptr inbounds nuw %struct.pmix_coord, ptr %43, i32 0, i32 1
  %45 = load ptr, ptr %44, align 8, !tbaa !65
  %46 = load ptr, ptr %6, align 8, !tbaa !60
  %47 = getelementptr inbounds nuw %struct.pmix_coord, ptr %46, i32 0, i32 1
  %48 = load ptr, ptr %47, align 8, !tbaa !65
  %49 = load ptr, ptr %5, align 8, !tbaa !60
  %50 = getelementptr inbounds nuw %struct.pmix_coord, ptr %49, i32 0, i32 2
  %51 = load i64, ptr %50, align 8, !tbaa !66
  %52 = mul i64 %51, 4
  call void @llvm.memcpy.p0.p0.i64(ptr align 4 %45, ptr align 4 %48, i64 %52, i1 false)
  br label %53

53:                                               ; preds = %42, %3
  store i32 0, ptr %4, align 4
  br label %54

54:                                               ; preds = %53, %41
  %55 = load i32, ptr %4, align 4
  ret i32 %55
}

; Function Attrs: inlinehint nounwind uwtable
define internal void @pmix_bfrops_base_tma_coord_construct(ptr noundef %0, ptr noundef %1) #1 {
  %3 = alloca ptr, align 8
  %4 = alloca ptr, align 8
  store ptr %0, ptr %3, align 8, !tbaa !60
  store ptr %1, ptr %4, align 8, !tbaa !8
  %5 = load ptr, ptr %3, align 8, !tbaa !60
  %6 = icmp eq ptr null, %5
  br i1 %6, label %7, label %8

7:                                                ; preds = %2
  br label %15

8:                                                ; preds = %2
  %9 = load ptr, ptr %3, align 8, !tbaa !60
  %10 = getelementptr inbounds nuw %struct.pmix_coord, ptr %9, i32 0, i32 0
  store i8 0, ptr %10, align 8, !tbaa !62
  %11 = load ptr, ptr %3, align 8, !tbaa !60
  %12 = getelementptr inbounds nuw %struct.pmix_coord, ptr %11, i32 0, i32 1
  store ptr null, ptr %12, align 8, !tbaa !65
  %13 = load ptr, ptr %3, align 8, !tbaa !60
  %14 = getelementptr inbounds nuw %struct.pmix_coord, ptr %13, i32 0, i32 2
  store i64 0, ptr %14, align 8, !tbaa !66
  br label %15

15:                                               ; preds = %8, %7
  ret void
}

; Function Attrs: inlinehint nounwind uwtable
define internal ptr @pmix_tma_malloc(ptr noundef %0, i64 noundef %1) #1 {
  %3 = alloca ptr, align 8
  %4 = alloca ptr, align 8
  %5 = alloca i64, align 8
  store ptr %0, ptr %4, align 8, !tbaa !8
  store i64 %1, ptr %5, align 8, !tbaa !30
  %6 = load ptr, ptr %4, align 8, !tbaa !8
  %7 = icmp ne ptr null, %6
  br i1 %7, label %8, label %15

8:                                                ; preds = %2
  %9 = load ptr, ptr %4, align 8, !tbaa !8
  %10 = getelementptr inbounds nuw %struct.pmix_tma, ptr %9, i32 0, i32 0
  %11 = load ptr, ptr %10, align 8, !tbaa !226
  %12 = load ptr, ptr %4, align 8, !tbaa !8
  %13 = load i64, ptr %5, align 8, !tbaa !30
  %14 = call ptr %11(ptr noundef %12, i64 noundef %13)
  store ptr %14, ptr %3, align 8
  br label %18

15:                                               ; preds = %2
  %16 = load i64, ptr %5, align 8, !tbaa !30
  %17 = call noalias ptr @malloc(i64 noundef %16) #17
  store ptr %17, ptr %3, align 8
  br label %18

18:                                               ; preds = %15, %8
  %19 = load ptr, ptr %3, align 8
  ret ptr %19
}

; Function Attrs: inlinehint nounwind uwtable
define internal i32 @pmix_bfrops_base_tma_copy_coord(ptr noundef %0, ptr noundef %1, i16 noundef zeroext %2, ptr noundef %3) #1 {
  %5 = alloca i32, align 4
  %6 = alloca ptr, align 8
  %7 = alloca ptr, align 8
  %8 = alloca i16, align 2
  %9 = alloca ptr, align 8
  %10 = alloca ptr, align 8
  %11 = alloca i32, align 4
  %12 = alloca i32, align 4
  store ptr %0, ptr %6, align 8, !tbaa !271
  store ptr %1, ptr %7, align 8, !tbaa !60
  store i16 %2, ptr %8, align 2, !tbaa !49
  store ptr %3, ptr %9, align 8, !tbaa !8
  call void @llvm.lifetime.start.p0(i64 8, ptr %10) #15
  %13 = load ptr, ptr %9, align 8, !tbaa !8
  %14 = call ptr @pmix_tma_malloc(ptr noundef %13, i64 noundef 24)
  store ptr %14, ptr %10, align 8, !tbaa !60
  %15 = load ptr, ptr %10, align 8, !tbaa !60
  %16 = icmp eq ptr null, %15
  %17 = xor i1 %16, true
  %18 = xor i1 %17, true
  %19 = zext i1 %18 to i32
  %20 = sext i32 %19 to i64
  %21 = call i64 @llvm.expect.i64(i64 %20, i64 0)
  %22 = icmp ne i64 %21, 0
  br i1 %22, label %23, label %24

23:                                               ; preds = %4
  store i32 -32, ptr %5, align 4
  store i32 1, ptr %11, align 4
  br label %49

24:                                               ; preds = %4
  %25 = load ptr, ptr %10, align 8, !tbaa !60
  %26 = load ptr, ptr %9, align 8, !tbaa !8
  call void @pmix_bfrops_base_tma_coord_construct(ptr noundef %25, ptr noundef %26)
  call void @llvm.lifetime.start.p0(i64 4, ptr %12) #15
  %27 = load ptr, ptr %10, align 8, !tbaa !60
  %28 = load ptr, ptr %7, align 8, !tbaa !60
  %29 = load ptr, ptr %9, align 8, !tbaa !8
  %30 = call i32 @pmix_bfrops_base_tma_fill_coord(ptr noundef %27, ptr noundef %28, ptr noundef %29)
  store i32 %30, ptr %12, align 4, !tbaa !12
  %31 = load i32, ptr %12, align 4, !tbaa !12
  %32 = icmp ne i32 0, %31
  %33 = xor i1 %32, true
  %34 = xor i1 %33, true
  %35 = zext i1 %34 to i32
  %36 = sext i32 %35 to i64
  %37 = call i64 @llvm.expect.i64(i64 %36, i64 0)
  %38 = icmp ne i64 %37, 0
  br i1 %38, label %39, label %44

39:                                               ; preds = %24
  %40 = load ptr, ptr %10, align 8, !tbaa !60
  %41 = load ptr, ptr %9, align 8, !tbaa !8
  call void @pmix_bfrops_base_tma_coord_destruct(ptr noundef %40, ptr noundef %41)
  %42 = load ptr, ptr %9, align 8, !tbaa !8
  %43 = load ptr, ptr %10, align 8, !tbaa !60
  call void @pmix_tma_free(ptr noundef %42, ptr noundef %43)
  br label %47

44:                                               ; preds = %24
  %45 = load ptr, ptr %10, align 8, !tbaa !60
  %46 = load ptr, ptr %6, align 8, !tbaa !271
  store ptr %45, ptr %46, align 8, !tbaa !60
  br label %47

47:                                               ; preds = %44, %39
  %48 = load i32, ptr %12, align 4, !tbaa !12
  store i32 %48, ptr %5, align 4
  store i32 1, ptr %11, align 4
  call void @llvm.lifetime.end.p0(i64 4, ptr %12) #15
  br label %49

49:                                               ; preds = %47, %23
  call void @llvm.lifetime.end.p0(i64 8, ptr %10) #15
  %50 = load i32, ptr %5, align 4
  ret i32 %50
}