; Function Attrs: inlinehint mustprogress nounwind willreturn uwtable
define internal fastcc range(i32 -32, 1) i32 @pmix_bfrops_base_tma_copy_coord(ptr noundef writeonly captures(none) %0, ptr noundef readonly captures(none) %1) unnamed_addr #39 {
  %3 = tail call noalias noundef dereferenceable_or_null(24) ptr @malloc(i64 noundef 24) #45
  %4 = icmp eq ptr %3, null
  br i1 %4, label %18, label %pmix_bfrops_base_tma_coord_construct.exit, !prof !77

pmix_bfrops_base_tma_coord_construct.exit:        ; preds = %2
  %5 = getelementptr inbounds nuw i8, ptr %3, i64 8
  store i64 0, ptr %5, align 8
  %6 = load i8, ptr %1, align 8, !tbaa !31
  store i8 %6, ptr %3, align 8, !tbaa !31
  %7 = getelementptr inbounds nuw i8, ptr %1, i64 16
  %8 = load i64, ptr %7, align 8, !tbaa !84
  %9 = getelementptr inbounds nuw i8, ptr %3, i64 16
  store i64 %8, ptr %9, align 8, !tbaa !84
  %.not.i = icmp eq i64 %8, 0
  br i1 %.not.i, label %17, label %10

10:                                               ; preds = %pmix_bfrops_base_tma_coord_construct.exit
  %11 = shl i64 %8, 2
  %12 = tail call noalias noundef ptr @malloc(i64 noundef %11) #45
  store ptr %12, ptr %5, align 8, !tbaa !35
  %13 = icmp eq ptr %12, null
  br i1 %13, label %pmix_bfrops_base_tma_coord_destruct.exit, label %14, !prof !77

14:                                               ; preds = %10
  %15 = getelementptr inbounds nuw i8, ptr %1, i64 8
  %16 = load ptr, ptr %15, align 8, !tbaa !35
  tail call void @llvm.memcpy.p0.p0.i64(ptr nonnull align 4 %12, ptr align 4 %16, i64 %11, i1 false)
  br label %17

pmix_bfrops_base_tma_coord_destruct.exit:         ; preds = %10
  tail call void @free(ptr noundef nonnull %3) #44
  br label %18

17:                                               ; preds = %14, %pmix_bfrops_base_tma_coord_construct.exit
  store ptr %3, ptr %0, align 8, !tbaa !251
  br label %18

18:                                               ; preds = %pmix_bfrops_base_tma_coord_destruct.exit, %17, %2
  %.0 = phi i32 [ -32, %2 ], [ 0, %17 ], [ -32, %pmix_bfrops_base_tma_coord_destruct.exit ]
  ret i32 %.0
}